; ModuleID = '44/1122.c'
source_filename = "44/1122.c"
target datalayout = "e-m:e-p270:32:32-p271:32:32-p272:64:64-i64:64-f80:128-n8:16:32:64-S128"
target triple = "x86_64-pc-linux-gnu"

@.str = private unnamed_addr constant [3 x i8] c"%d\00", align 1
@.str.1 = private unnamed_addr constant [4 x i8] c"%d\0A\00", align 1

; Function Attrs: noinline nounwind uwtable
define dso_local void @main() #0 {
  %1 = alloca i32, align 4
  %2 = alloca i32, align 4
  store i32 0, i32* %1, align 4
  br label %3

3:                                                ; preds = %11, %0
  %4 = load i32, i32* %1, align 4
  %5 = icmp slt i32 %4, 6
  br i1 %5, label %6, label %14

6:                                                ; preds = %3
  %7 = call i32 (i8*, ...) @__isoc99_scanf(i8* getelementptr inbounds ([3 x i8], [3 x i8]* @.str, i64 0, i64 0), i32* %2)
  %8 = load i32, i32* %2, align 4
  %9 = call i32 @r(i32 %8)
  %10 = call i32 (i8*, ...) @printf(i8* getelementptr inbounds ([4 x i8], [4 x i8]* @.str.1, i64 0, i64 0), i32 %9)
  br label %11

11:                                               ; preds = %6
  %12 = load i32, i32* %1, align 4
  %13 = add nsw i32 %12, 1
  store i32 %13, i32* %1, align 4
  br label %3

14:                                               ; preds = %3
  ret void
}

declare dso_local i32 @__isoc99_scanf(i8*, ...) #1

declare dso_local i32 @printf(i8*, ...) #1

; Function Attrs: noinline nounwind uwtable
define dso_local i32 @r(i32 %0) #0 {
  %2 = alloca i32, align 4
  %3 = alloca i32, align 4
  %4 = alloca i32, align 4
  %5 = alloca i32, align 4
  %6 = alloca i32, align 4
  %7 = alloca i32, align 4
  %8 = alloca [10 x i32], align 16
  store i32 %0, i32* %3, align 4
  store i32 0, i32* %6, align 4
  store i32 1, i32* %7, align 4
  %9 = load i32, i32* %3, align 4
  %10 = icmp slt i32 %9, 0
  br i1 %10, label %11, label %52

11:                                               ; preds = %1
  %12 = load i32, i32* %3, align 4
  %13 = call i32 @abs(i32 %12) #3
  store i32 %13, i32* %3, align 4
  store i32 0, i32* %4, align 4
  br label %14

14:                                               ; preds = %25, %11
  %15 = load i32, i32* %3, align 4
  %16 = icmp ne i32 %15, 0
  br i1 %16, label %17, label %28

17:                                               ; preds = %14
  %18 = load i32, i32* %3, align 4
  %19 = srem i32 %18, 10
  %20 = load i32, i32* %4, align 4
  %21 = sext i32 %20 to i64
  %22 = getelementptr inbounds [10 x i32], [10 x i32]* %8, i64 0, i64 %21
  store i32 %19, i32* %22, align 4
  %23 = load i32, i32* %3, align 4
  %24 = sdiv i32 %23, 10
  store i32 %24, i32* %3, align 4
  br label %25

25:                                               ; preds = %17
  %26 = load i32, i32* %4, align 4
  %27 = add nsw i32 %26, 1
  store i32 %27, i32* %4, align 4
  br label %14

28:                                               ; preds = %14
  %29 = load i32, i32* %4, align 4
  %30 = sub nsw i32 %29, 1
  store i32 %30, i32* %5, align 4
  br label %31

31:                                               ; preds = %45, %28
  %32 = load i32, i32* %5, align 4
  %33 = icmp sge i32 %32, 0
  br i1 %33, label %34, label %48

34:                                               ; preds = %31
  %35 = load i32, i32* %5, align 4
  %36 = sext i32 %35 to i64
  %37 = getelementptr inbounds [10 x i32], [10 x i32]* %8, i64 0, i64 %36
  %38 = load i32, i32* %37, align 4
  %39 = load i32, i32* %7, align 4
  %40 = mul nsw i32 %38, %39
  %41 = load i32, i32* %6, align 4
  %42 = add nsw i32 %41, %40
  store i32 %42, i32* %6, align 4
  %43 = load i32, i32* %7, align 4
  %44 = mul nsw i32 %43, 10
  store i32 %44, i32* %7, align 4
  br label %45

45:                                               ; preds = %34
  %46 = load i32, i32* %5, align 4
  %47 = add nsw i32 %46, -1
  store i32 %47, i32* %5, align 4
  br label %31

48:                                               ; preds = %31
  %49 = load i32, i32* %6, align 4
  %50 = sub nsw i32 0, %49
  store i32 %50, i32* %6, align 4
  %51 = load i32, i32* %6, align 4
  store i32 %51, i32* %2, align 4
  br label %89

52:                                               ; preds = %1
  store i32 0, i32* %4, align 4
  br label %53

53:                                               ; preds = %64, %52
  %54 = load i32, i32* %3, align 4
  %55 = icmp ne i32 %54, 0
  br i1 %55, label %56, label %67

56:                                               ; preds = %53
  %57 = load i32, i32* %3, align 4
  %58 = srem i32 %57, 10
  %59 = load i32, i32* %4, align 4
  %60 = sext i32 %59 to i64
  %61 = getelementptr inbounds [10 x i32], [10 x i32]* %8, i64 0, i64 %60
  store i32 %58, i32* %61, align 4
  %62 = load i32, i32* %3, align 4
  %63 = sdiv i32 %62, 10
  store i32 %63, i32* %3, align 4
  br label %64

64:                                               ; preds = %56
  %65 = load i32, i32* %4, align 4
  %66 = add nsw i32 %65, 1
  store i32 %66, i32* %4, align 4
  br label %53

67:                                               ; preds = %53
  %68 = load i32, i32* %4, align 4
  %69 = sub nsw i32 %68, 1
  store i32 %69, i32* %5, align 4
  br label %70

70:                                               ; preds = %84, %67
  %71 = load i32, i32* %5, align 4
  %72 = icmp sge i32 %71, 0
  br i1 %72, label %73, label %87

73:                                               ; preds = %70
  %74 = load i32, i32* %5, align 4
  %75 = sext i32 %74 to i64
  %76 = getelementptr inbounds [10 x i32], [10 x i32]* %8, i64 0, i64 %75
  %77 = load i32, i32* %76, align 4
  %78 = load i32, i32* %7, align 4
  %79 = mul nsw i32 %77, %78
  %80 = load i32, i32* %6, align 4
  %81 = add nsw i32 %80, %79
  store i32 %81, i32* %6, align 4
  %82 = load i32, i32* %7, align 4
  %83 = mul nsw i32 %82, 10
  store i32 %83, i32* %7, align 4
  br label %84

84:                                               ; preds = %73
  %85 = load i32, i32* %5, align 4
  %86 = add nsw i32 %85, -1
  store i32 %86, i32* %5, align 4
  br label %70

87:                                               ; preds = %70
  %88 = load i32, i32* %6, align 4
  store i32 %88, i32* %2, align 4
  br label %89

89:                                               ; preds = %87, %48
  %90 = load i32, i32* %2, align 4
  ret i32 %90
}

; Function Attrs: nounwind readnone
declare dso_local i32 @abs(i32) #2


!llvm.module.flags = !{!0}
!llvm.ident = !{!1}

!0 = !{i32 1, !"wchar_size", i32 4}
!1 = !{!"clang version 10.0.0-4ubuntu1 "}
